; Function Attrs: nounwind uwtable
define hidden void @EC_GROUP_free(ptr noundef %0) local_unnamed_addr #1 {
  %.not = icmp eq ptr %0, null
  br i1 %.not, label %13, label %2

2:                                                ; preds = %1
  %3 = load ptr, ptr %0, align 8, !tbaa !11
  %4 = getelementptr inbounds nuw i8, ptr %3, i64 8
  %5 = load ptr, ptr %4, align 8, !tbaa !20
  %.not9 = icmp eq ptr %5, null
  br i1 %.not9, label %7, label %6

6:                                                ; preds = %2
  tail call void %5(ptr noundef nonnull %0) #11
  br label %7

7:                                                ; preds = %6, %2
  %8 = getelementptr inbounds nuw i8, ptr %0, i64 8
  %9 = load ptr, ptr %8, align 8, !tbaa !21
  %.not.i = icmp eq ptr %9, null
  br i1 %.not.i, label %EC_POINT_free.exit, label %10

10:                                               ; preds = %7
  tail call void @ec_GFp_simple_point_finish(ptr noundef nonnull %9) #11
  tail call void @free(ptr noundef nonnull %9) #11
  br label %EC_POINT_free.exit

EC_POINT_free.exit:                               ; preds = %7, %10
  %11 = getelementptr inbounds nuw i8, ptr %0, i64 16
  tail call void @BN_free(ptr noundef nonnull %11) #11
  %12 = getelementptr inbounds nuw i8, ptr %0, i64 40
  tail call void @BN_free(ptr noundef nonnull %12) #11
  tail call void @free(ptr noundef nonnull %0) #11
  br label %13

13:                                               ; preds = %1, %EC_POINT_free.exit
  ret void
}